; Function Attrs: nounwind uwtable
define zeroext range(i8 0, 2) i8 @l_Int_Linear_eq__of__core__cert(ptr noundef %0, ptr noundef %1, ptr noundef %2) local_unnamed_addr #1 {
  %4 = load ptr, ptr @l_Int_Linear_norm__eq__var__cert___closed__1, align 8, !tbaa !11
  %5 = load ptr, ptr @l_Int_Linear_instInhabitedExpr___closed__1, align 8, !tbaa !11
  %6 = ptrtoint ptr %4 to i64
  %7 = ptrtoint ptr %5 to i64
  %8 = and i64 %6, 1
  %9 = and i64 %8, %7
  %or.cond.not.i.i.i = icmp eq i64 %9, 0
  br i1 %or.cond.not.i.i.i, label %lean_int_dec_eq.exit.i, label %10, !prof !13

10:                                               ; preds = %3
  %11 = icmp eq ptr %4, %5
  br i1 %11, label %15, label %13

lean_int_dec_eq.exit.i:                           ; preds = %3
  %12 = tail call zeroext i1 @lean_int_big_eq(ptr noundef %4, ptr noundef %5) #5
  br i1 %12, label %15, label %13

13:                                               ; preds = %lean_int_dec_eq.exit.i, %10
  %14 = tail call ptr @l_Int_Linear_Poly_mul_x27(ptr noundef %1, ptr noundef %4)
  br label %l_Int_Linear_Poly_mul.exit

15:                                               ; preds = %lean_int_dec_eq.exit.i, %10
  %16 = ptrtoint ptr %1 to i64
  %17 = and i64 %16, 1
  %.not.i8 = icmp eq i64 %17, 0
  br i1 %.not.i8, label %18, label %lean_dec.exit.i

18:                                               ; preds = %15
  %19 = load i32, ptr %1, align 4, !tbaa !6
  %20 = icmp sgt i32 %19, 1
  br i1 %20, label %21, label %23, !prof !5

21:                                               ; preds = %18
  %22 = add nsw i32 %19, -1
  store i32 %22, ptr %1, align 4, !tbaa !6
  br label %lean_dec.exit.i

23:                                               ; preds = %18
  %.not.i.i = icmp eq i32 %19, 0
  br i1 %.not.i.i, label %lean_dec.exit.i, label %24

24:                                               ; preds = %23
  tail call void @lean_dec_ref_cold(ptr noundef nonnull %1) #5
  br label %lean_dec.exit.i

lean_dec.exit.i:                                  ; preds = %24, %23, %21, %15
  %25 = load ptr, ptr @l_Int_Linear_Expr_toPoly_x27___closed__1, align 8, !tbaa !11
  br label %l_Int_Linear_Poly_mul.exit

l_Int_Linear_Poly_mul.exit:                       ; preds = %13, %lean_dec.exit.i
  %.0.i = phi ptr [ %14, %13 ], [ %25, %lean_dec.exit.i ]
  %26 = tail call ptr @l_Int_Linear_Poly_combine_x27(ptr noundef nonnull inttoptr (i64 200000001 to ptr), ptr noundef %0, ptr noundef %.0.i)
  %27 = tail call zeroext i8 @l_Int_Linear_beqPoly____x40_Init_Data_Int_Linear___hyg_596_(ptr noundef %2, ptr noundef %26)
  %28 = ptrtoint ptr %26 to i64
  %29 = and i64 %28, 1
  %.not = icmp eq i64 %29, 0
  br i1 %.not, label %30, label %lean_dec.exit

30:                                               ; preds = %l_Int_Linear_Poly_mul.exit
  %31 = load i32, ptr %26, align 4, !tbaa !6
  %32 = icmp sgt i32 %31, 1
  br i1 %32, label %33, label %35, !prof !5

33:                                               ; preds = %30
  %34 = add nsw i32 %31, -1
  store i32 %34, ptr %26, align 4, !tbaa !6
  br label %lean_dec.exit

35:                                               ; preds = %30
  %.not.i = icmp eq i32 %31, 0
  br i1 %.not.i, label %lean_dec.exit, label %36

36:                                               ; preds = %35
  tail call void @lean_dec_ref_cold(ptr noundef nonnull %26) #5
  br label %lean_dec.exit

lean_dec.exit:                                    ; preds = %36, %35, %33, %l_Int_Linear_Poly_mul.exit
  ret i8 %27
}